; ModuleID = '30/1831.c'
source_filename = "30/1831.c"
target datalayout = "e-m:e-p270:32:32-p271:32:32-p272:64:64-i64:64-f80:128-n8:16:32:64-S128"
target triple = "x86_64-pc-linux-gnu"

@.str = private unnamed_addr constant [3 x i8] c"%d\00", align 1

; Function Attrs: noinline nounwind uwtable
define dso_local i32 @main() #0 {
  %1 = alloca i32, align 4
  %2 = alloca i32, align 4
  %3 = alloca i32, align 4
  %4 = alloca i32, align 4
  store i32 0, i32* %1, align 4
  store i32 0, i32* %4, align 4
  %5 = call i32 (i8*, ...) @__isoc99_scanf(i8* getelementptr inbounds ([3 x i8], [3 x i8]* @.str, i64 0, i64 0), i32* %2)
  store i32 0, i32* %3, align 4
  br label %6

6:                                                ; preds = %16, %0
  %7 = load i32, i32* %3, align 4
  %8 = load i32, i32* %2, align 4
  %9 = icmp sle i32 %7, %8
  br i1 %9, label %10, label %19

10:                                               ; preds = %6
  %11 = load i32, i32* %4, align 4
  %12 = load i32, i32* %3, align 4
  %13 = load i32, i32* %3, align 4
  %14 = mul nsw i32 %12, %13
  %15 = add nsw i32 %11, %14
  store i32 %15, i32* %4, align 4
  br label %16

16:                                               ; preds = %10
  %17 = load i32, i32* %3, align 4
  %18 = add nsw i32 %17, 1
  store i32 %18, i32* %3, align 4
  br label %6

19:                                               ; preds = %6
  store i32 0, i32* %3, align 4
  br label %20

20:                                               ; preds = %59, %19
  %21 = load i32, i32* %3, align 4
  %22 = load i32, i32* %2, align 4
  %23 = icmp sle i32 %21, %22
  br i1 %23, label %24, label %62

24:                                               ; preds = %20
  %25 = load i32, i32* %3, align 4
  %26 = srem i32 %25, 7
  %27 = icmp eq i32 %26, 0
  br i1 %27, label %28, label %34

28:                                               ; preds = %24
  %29 = load i32, i32* %4, align 4
  %30 = load i32, i32* %3, align 4
  %31 = load i32, i32* %3, align 4
  %32 = mul nsw i32 %30, %31
  %33 = sub nsw i32 %29, %32
  store i32 %33, i32* %4, align 4
  br label %58

34:                                               ; preds = %24
  %35 = load i32, i32* %3, align 4
  %36 = srem i32 %35, 10
  %37 = icmp eq i32 %36, 7
  br i1 %37, label %38, label %44

38:                                               ; preds = %34
  %39 = load i32, i32* %4, align 4
  %40 = load i32, i32* %3, align 4
  %41 = load i32, i32* %3, align 4
  %42 = mul nsw i32 %40, %41
  %43 = sub nsw i32 %39, %42
  store i32 %43, i32* %4, align 4
  br label %57

44:                                               ; preds = %34
  %45 = load i32, i32* %3, align 4
  %46 = load i32, i32* %3, align 4
  %47 = srem i32 %46, 10
  %48 = sub nsw i32 %45, %47
  %49 = icmp eq i32 %48, 70
  br i1 %49, label %50, label %56

50:                                               ; preds = %44
  %51 = load i32, i32* %4, align 4
  %52 = load i32, i32* %3, align 4
  %53 = load i32, i32* %3, align 4
  %54 = mul nsw i32 %52, %53
  %55 = sub nsw i32 %51, %54
  store i32 %55, i32* %4, align 4
  br label %56

56:                                               ; preds = %50, %44
  br label %57

57:                                               ; preds = %56, %38
  br label %58

58:                                               ; preds = %57, %28
  br label %59

59:                                               ; preds = %58
  %60 = load i32, i32* %3, align 4
  %61 = add nsw i32 %60, 1
  store i32 %61, i32* %3, align 4
  br label %20

62:                                               ; preds = %20
  %63 = load i32, i32* %4, align 4
  %64 = call i32 (i8*, ...) @printf(i8* getelementptr inbounds ([3 x i8], [3 x i8]* @.str, i64 0, i64 0), i32 %63)
  ret i32 0
}

declare dso_local i32 @__isoc99_scanf(i8*, ...) #1

declare dso_local i32 @printf(i8*, ...) #1


!llvm.module.flags = !{!0}
!llvm.ident = !{!1}

!0 = !{i32 1, !"wchar_size", i32 4}
!1 = !{!"clang version 10.0.0-4ubuntu1 "}
