; ModuleID = 'source-C-CXX/29/1831.c'
source_filename = "source-C-CXX/29/1831.c"
target datalayout = "e-m:e-p270:32:32-p271:32:32-p272:64:64-i64:64-f80:128-n8:16:32:64-S128"
target triple = "x86_64-pc-linux-gnu"

@.str = private unnamed_addr constant [3 x i8] c"%d\00", align 1

; Function Attrs: nofree nounwind sspstrong uwtable
define dso_local i32 @main() local_unnamed_addr #0 {
  %1 = alloca i32, align 4
  %2 = bitcast i32* %1 to i8*
  call void @llvm.lifetime.start.p0i8(i64 4, i8* nonnull %2) #3
  %3 = call i32 (i8*, ...) @__isoc99_scanf(i8* getelementptr inbounds ([3 x i8], [3 x i8]* @.str, i64 0, i64 0), i32* nonnull %1)
  %4 = load i32, i32* %1, align 4, !tbaa !5
  %5 = icmp slt i32 %4, 0
  br i1 %5, label %46, label %6

6:                                                ; preds = %0
  %7 = zext i32 %4 to i33
  %8 = add nsw i32 %4, -1
  %9 = zext i32 %8 to i33
  %10 = mul i33 %7, %9
  %11 = add nsw i32 %4, -2
  %12 = zext i32 %11 to i33
  %13 = mul i33 %10, %12
  %14 = lshr i33 %13, 1
  %15 = trunc i33 %14 to i32
  %16 = mul i32 %15, 1431655766
  %17 = lshr i33 %10, 1
  %18 = trunc i33 %17 to i32
  %19 = mul i32 %18, 3
  %20 = add i32 %4, %16
  %21 = add i32 %20, %19
  br label %22

22:                                               ; preds = %6, %42
  %23 = phi i32 [ %43, %42 ], [ %21, %6 ]
  %24 = phi i32 [ %44, %42 ], [ 0, %6 ]
  %25 = urem i32 %24, 7
  %26 = icmp eq i32 %25, 0
  br i1 %26, label %27, label %30

27:                                               ; preds = %22
  %28 = mul nsw i32 %24, %24
  %29 = sub nsw i32 %23, %28
  br label %42

30:                                               ; preds = %22
  %31 = urem i32 %24, 10
  %32 = icmp eq i32 %31, 7
  br i1 %32, label %33, label %36

33:                                               ; preds = %30
  %34 = mul nsw i32 %24, %24
  %35 = sub nsw i32 %23, %34
  br label %42

36:                                               ; preds = %30
  %37 = sub nuw nsw i32 %24, %31
  %38 = icmp eq i32 %37, 70
  br i1 %38, label %39, label %42

39:                                               ; preds = %36
  %40 = mul nsw i32 %24, %24
  %41 = sub nsw i32 %23, %40
  br label %42

42:                                               ; preds = %27, %36, %39, %33
  %43 = phi i32 [ %29, %27 ], [ %35, %33 ], [ %41, %39 ], [ %23, %36 ]
  %44 = add nuw i32 %24, 1
  %45 = icmp eq i32 %24, %4
  br i1 %45, label %46, label %22, !llvm.loop !9

46:                                               ; preds = %42, %0
  %47 = phi i32 [ 0, %0 ], [ %43, %42 ]
  %48 = call i32 (i8*, ...) @printf(i8* nonnull dereferenceable(1) getelementptr inbounds ([3 x i8], [3 x i8]* @.str, i64 0, i64 0), i32 %47)
  call void @llvm.lifetime.end.p0i8(i64 4, i8* nonnull %2) #3
  ret i32 0
}

; Function Attrs: argmemonly mustprogress nofree nosync nounwind willreturn
declare void @llvm.lifetime.start.p0i8(i64 immarg, i8* nocapture) #1

; Function Attrs: nofree nounwind
declare noundef i32 @__isoc99_scanf(i8* nocapture noundef readonly, ...) local_unnamed_addr #2

; Function Attrs: nofree nounwind
declare noundef i32 @printf(i8* nocapture noundef readonly, ...) local_unnamed_addr #2

; Function Attrs: argmemonly mustprogress nofree nosync nounwind willreturn
declare void @llvm.lifetime.end.p0i8(i64 immarg, i8* nocapture) #1


!llvm.module.flags = !{!0, !1, !2, !3}
!llvm.ident = !{!4}

!0 = !{i32 1, !"wchar_size", i32 4}
!1 = !{i32 7, !"PIC Level", i32 2}
!2 = !{i32 7, !"PIE Level", i32 2}
!3 = !{i32 7, !"uwtable", i32 1}
!4 = !{!"clang version 13.0.0"}
!5 = !{!6, !6, i64 0}
!6 = !{!"int", !7, i64 0}
!7 = !{!"omnipotent char", !8, i64 0}
!8 = !{!"Simple C/C++ TBAA"}
!9 = distinct !{!9, !10}
!10 = !{!"llvm.loop.mustprogress"}
